target datalayout = "e-m:e-p270:32:32-p271:32:32-p272:64:64-i64:64-i128:128-f80:128-n8:16:32:64-S128"
target triple = "x86_64-unknown-linux-gnu"

; Function Attrs: mustprogress uwtable
define noundef double @_ZNK8QuantLib20ForwardRateStructure13zeroYieldImplEd(ptr noundef nonnull align 8 dereferenceable(152) %this, double noundef %t) unnamed_addr #6 align 2 {
entry:
  %retval = alloca double, align 8
  %this.addr = alloca ptr, align 8
  %t.addr = alloca double, align 8
  %sum = alloca double, align 8
  %N = alloca i64, align 8
  %dt = alloca double, align 8
  %i = alloca double, align 8
  store ptr %this, ptr %this.addr, align 8, !tbaa !3
  store double %t, ptr %t.addr, align 8, !tbaa !14
  %this1 = load ptr, ptr %this.addr, align 8
  %0 = load double, ptr %t.addr, align 8, !tbaa !14
  %cmp = fcmp oeq double %0, 0.000000e+00
  br i1 %cmp, label %if.then, label %if.end

if.then:                                          ; preds = %entry
  %vtable = load ptr, ptr %this1, align 8, !tbaa !7
  %vfn = getelementptr inbounds ptr, ptr %vtable, i64 10
  %1 = load ptr, ptr %vfn, align 8
  %call = call noundef double %1(ptr noundef nonnull align 8 dereferenceable(152) %this1, double noundef 0.000000e+00)
  store double %call, ptr %retval, align 8
  br label %return

if.end:                                           ; preds = %entry
  call void @llvm.lifetime.start.p0(i64 8, ptr %sum) #19
  %vtable2 = load ptr, ptr %this1, align 8, !tbaa !7
  %vfn3 = getelementptr inbounds ptr, ptr %vtable2, i64 10
  %2 = load ptr, ptr %vfn3, align 8
  %call4 = call noundef double %2(ptr noundef nonnull align 8 dereferenceable(152) %this1, double noundef 0.000000e+00)
  %mul = fmul double 5.000000e-01, %call4
  store double %mul, ptr %sum, align 8, !tbaa !14
  call void @llvm.lifetime.start.p0(i64 8, ptr %N) #19
  store i64 1000, ptr %N, align 8, !tbaa !16
  call void @llvm.lifetime.start.p0(i64 8, ptr %dt) #19
  %3 = load double, ptr %t.addr, align 8, !tbaa !14
  %4 = load i64, ptr %N, align 8, !tbaa !16
  %conv = uitofp i64 %4 to double
  %div = fdiv double %3, %conv
  store double %div, ptr %dt, align 8, !tbaa !14
  call void @llvm.lifetime.start.p0(i64 8, ptr %i) #19
  %5 = load double, ptr %dt, align 8, !tbaa !14
  store double %5, ptr %i, align 8, !tbaa !14
  br label %for.cond

for.cond:                                         ; preds = %for.inc, %if.end
  %6 = load double, ptr %i, align 8, !tbaa !14
  %7 = load double, ptr %t.addr, align 8, !tbaa !14
  %cmp5 = fcmp olt double %6, %7
  br i1 %cmp5, label %for.body, label %for.cond.cleanup

for.cond.cleanup:                                 ; preds = %for.cond
  call void @llvm.lifetime.end.p0(i64 8, ptr %i) #19
  br label %for.end

for.body:                                         ; preds = %for.cond
  %8 = load double, ptr %i, align 8, !tbaa !14
  %vtable6 = load ptr, ptr %this1, align 8, !tbaa !7
  %vfn7 = getelementptr inbounds ptr, ptr %vtable6, i64 10
  %9 = load ptr, ptr %vfn7, align 8
  %call8 = call noundef double %9(ptr noundef nonnull align 8 dereferenceable(152) %this1, double noundef %8)
  %10 = load double, ptr %sum, align 8, !tbaa !14
  %add = fadd double %10, %call8
  store double %add, ptr %sum, align 8, !tbaa !14
  br label %for.inc

for.inc:                                          ; preds = %for.body
  %11 = load double, ptr %dt, align 8, !tbaa !14
  %12 = load double, ptr %i, align 8, !tbaa !14
  %add9 = fadd double %12, %11
  store double %add9, ptr %i, align 8, !tbaa !14
  br label %for.cond, !llvm.loop !18

for.end:                                          ; preds = %for.cond.cleanup
  %13 = load double, ptr %t.addr, align 8, !tbaa !14
  %vtable10 = load ptr, ptr %this1, align 8, !tbaa !7
  %vfn11 = getelementptr inbounds ptr, ptr %vtable10, i64 10
  %14 = load ptr, ptr %vfn11, align 8
  %call12 = call noundef double %14(ptr noundef nonnull align 8 dereferenceable(152) %this1, double noundef %13)
  %15 = load double, ptr %sum, align 8, !tbaa !14
  %16 = call double @llvm.fmuladd.f64(double 5.000000e-01, double %call12, double %15)
  store double %16, ptr %sum, align 8, !tbaa !14
  %17 = load double, ptr %sum, align 8, !tbaa !14
  %18 = load double, ptr %dt, align 8, !tbaa !14
  %mul14 = fmul double %17, %18
  %19 = load double, ptr %t.addr, align 8, !tbaa !14
  %div15 = fdiv double %mul14, %19
  store double %div15, ptr %retval, align 8
  call void @llvm.lifetime.end.p0(i64 8, ptr %dt) #19
  call void @llvm.lifetime.end.p0(i64 8, ptr %N) #19
  call void @llvm.lifetime.end.p0(i64 8, ptr %sum) #19
  br label %return

return:                                           ; preds = %for.end, %if.then
  %20 = load double, ptr %retval, align 8
  ret double %20
}