; Function Attrs: mustprogress uwtable
define noundef double @_ZNK8QuantLib20ForwardRateStructure13zeroYieldImplEd(ptr noundef nonnull align 8 dereferenceable(152) %this, double noundef %t) unnamed_addr #5 align 2 {
entry:
  %cmp = fcmp oeq double %t, 0.000000e+00
  %vtable = load ptr, ptr %this, align 8, !tbaa !10
  %vfn = getelementptr inbounds i8, ptr %vtable, i64 80
  %0 = load ptr, ptr %vfn, align 8
  %call = tail call noundef double %0(ptr noundef nonnull align 8 dereferenceable(152) %this, double noundef 0.000000e+00)
  br i1 %cmp, label %return, label %if.end

if.end:                                           ; preds = %entry
  %mul = fmul double %call, 5.000000e-01
  %div = fdiv double %t, 1.000000e+03
  %cmp511 = fcmp olt double %div, %t
  br i1 %cmp511, label %for.body, label %for.cond.cleanup

for.cond.cleanup:                                 ; preds = %for.body, %if.end
  %sum.0.lcssa = phi double [ %mul, %if.end ], [ %add, %for.body ]
  %vtable10 = load ptr, ptr %this, align 8, !tbaa !10
  %vfn11 = getelementptr inbounds i8, ptr %vtable10, i64 80
  %1 = load ptr, ptr %vfn11, align 8
  %call12 = tail call noundef double %1(ptr noundef nonnull align 8 dereferenceable(152) %this, double noundef %t)
  %2 = tail call double @llvm.fmuladd.f64(double %call12, double 5.000000e-01, double %sum.0.lcssa)
  %mul14 = fmul double %div, %2
  %div15 = fdiv double %mul14, %t
  br label %return

for.body:                                         ; preds = %if.end, %for.body
  %i.013 = phi double [ %add9, %for.body ], [ %div, %if.end ]
  %sum.012 = phi double [ %add, %for.body ], [ %mul, %if.end ]
  %vtable6 = load ptr, ptr %this, align 8, !tbaa !10
  %vfn7 = getelementptr inbounds i8, ptr %vtable6, i64 80
  %3 = load ptr, ptr %vfn7, align 8
  %call8 = tail call noundef double %3(ptr noundef nonnull align 8 dereferenceable(152) %this, double noundef %i.013)
  %add = fadd double %sum.012, %call8
  %add9 = fadd double %div, %i.013
  %cmp5 = fcmp olt double %add9, %t
  br i1 %cmp5, label %for.body, label %for.cond.cleanup, !llvm.loop !23

return:                                           ; preds = %entry, %for.cond.cleanup
  %retval.0 = phi double [ %div15, %for.cond.cleanup ], [ %call, %entry ]
  ret double %retval.0
}